target datalayout = "e-m:e-p270:32:32-p271:32:32-p272:64:64-i64:64-i128:128-f80:128-n8:16:32:64-S128"
target triple = "x86_64-pc-linux-gnu"

%struct.crypto_ex_data_st = type { ptr }
%struct.ssl_st = type { i32, i16, i16, ptr, ptr, ptr, ptr, ptr, i32, i32, ptr, ptr, i32, i32, ptr, ptr, ptr, ptr, ptr, ptr, ptr, ptr, i32, i32, [32 x i8], ptr, ptr, ptr, ptr, ptr, ptr, ptr, i64, %struct.crypto_ex_data_st, ptr, i32, i32, i32, i32, i16, ptr, i32, i64, ptr, ptr, ptr, ptr, ptr, ptr, i32, i32, ptr, ptr, i8, i8, i32 }
%struct.ssl_protocol_method_st = type { i8, ptr, ptr, ptr, ptr, ptr, ptr, ptr, ptr, ptr, ptr, ptr, i32, ptr, ptr }

@.str = private unnamed_addr constant [117 x i8] c"generated/home/dtcxzyw/WorkSpace/Projects/compilers/llvm-opt-benchmark/bench/libquic/libquic/boringssl/ssl/ssl_lib.c\00", align 1

; Function Attrs: nounwind uwtable
define hidden i32 @SSL_do_handshake(ptr noundef %0) #0 {
  %2 = alloca i32, align 4
  %3 = alloca ptr, align 8
  store ptr %0, ptr %3, align 8, !tbaa !80
  %4 = load ptr, ptr %3, align 8, !tbaa !80
  %5 = getelementptr inbounds nuw %struct.ssl_st, ptr %4, i32 0, i32 22
  store i32 1, ptr %5, align 8, !tbaa !120
  call void @ERR_clear_error()
  %6 = load ptr, ptr %3, align 8, !tbaa !80
  %7 = getelementptr inbounds nuw %struct.ssl_st, ptr %6, i32 0, i32 7
  %8 = load ptr, ptr %7, align 8, !tbaa !141
  %9 = icmp eq ptr %8, null
  br i1 %9, label %10, label %11

10:                                               ; preds = %1
  call void @ERR_put_error(i32 noundef 16, i32 noundef 0, i32 noundef 134, ptr noundef @.str, i32 noundef 556)
  store i32 -1, ptr %2, align 4
  br label %22

11:                                               ; preds = %1
  %12 = load ptr, ptr %3, align 8, !tbaa !80
  %13 = call i32 @SSL_in_init(ptr noundef %12)
  %14 = icmp ne i32 %13, 0
  br i1 %14, label %16, label %15

15:                                               ; preds = %11
  store i32 1, ptr %2, align 4
  br label %22

16:                                               ; preds = %11
  %17 = load ptr, ptr %3, align 8, !tbaa !80
  %18 = getelementptr inbounds nuw %struct.ssl_st, ptr %17, i32 0, i32 7
  %19 = load ptr, ptr %18, align 8, !tbaa !141
  %20 = load ptr, ptr %3, align 8, !tbaa !80
  %21 = call i32 %19(ptr noundef %20)
  store i32 %21, ptr %2, align 4
  br label %22

22:                                               ; preds = %16, %15, %10
  %23 = load i32, ptr %2, align 4
  ret i32 %23
}

; Function Attrs: nounwind uwtable
define hidden i32 @SSL_in_init(ptr noundef %0) #0 {
  %2 = alloca ptr, align 8
  store ptr %0, ptr %2, align 8, !tbaa !80
  %3 = load ptr, ptr %2, align 8, !tbaa !80
  %4 = getelementptr inbounds nuw %struct.ssl_st, ptr %3, i32 0, i32 9
  %5 = load i32, ptr %4, align 4, !tbaa !139
  %6 = and i32 %5, 12288
  %7 = icmp ne i32 %6, 0
  %8 = zext i1 %7 to i32
  ret i32 %8
}

; Function Attrs: nounwind uwtable
define internal i32 @ssl_read_impl(ptr noundef %0, ptr noundef %1, i32 noundef %2, i32 noundef %3) #0 {
  %5 = alloca i32, align 4
  %6 = alloca ptr, align 8
  %7 = alloca ptr, align 8
  %8 = alloca i32, align 4
  %9 = alloca i32, align 4
  %10 = alloca i32, align 4
  %11 = alloca i32, align 4
  store ptr %0, ptr %6, align 8, !tbaa !80
  store ptr %1, ptr %7, align 8, !tbaa !147
  store i32 %2, ptr %8, align 4, !tbaa !61
  store i32 %3, ptr %9, align 4, !tbaa !61
  %12 = load ptr, ptr %6, align 8, !tbaa !80
  %13 = getelementptr inbounds nuw %struct.ssl_st, ptr %12, i32 0, i32 22
  store i32 1, ptr %13, align 8, !tbaa !120
  call void @ERR_clear_error()
  call void @ERR_clear_system_error()
  %14 = load ptr, ptr %6, align 8, !tbaa !80
  %15 = getelementptr inbounds nuw %struct.ssl_st, ptr %14, i32 0, i32 7
  %16 = load ptr, ptr %15, align 8, !tbaa !141
  %17 = icmp eq ptr %16, null
  br i1 %17, label %18, label %19

18:                                               ; preds = %4
  call void @ERR_put_error(i32 noundef 16, i32 noundef 0, i32 noundef 226, ptr noundef @.str, i32 noundef 596)
  store i32 -1, ptr %5, align 4
  br label %57

19:                                               ; preds = %4
  %20 = load ptr, ptr %6, align 8, !tbaa !80
  %21 = getelementptr inbounds nuw %struct.ssl_st, ptr %20, i32 0, i32 8
  %22 = load i32, ptr %21, align 8, !tbaa !138
  %23 = and i32 %22, 2
  %24 = icmp ne i32 %23, 0
  br i1 %24, label %25, label %26

25:                                               ; preds = %19
  store i32 0, ptr %5, align 4
  br label %57

26:                                               ; preds = %19
  br label %27

27:                                               ; preds = %45, %26
  %28 = load ptr, ptr %6, align 8, !tbaa !80
  %29 = call i32 @SSL_in_init(ptr noundef %28)
  %30 = icmp ne i32 %29, 0
  br i1 %30, label %31, label %46

31:                                               ; preds = %27
  call void @llvm.lifetime.start.p0(i64 4, ptr %10) #8
  %32 = load ptr, ptr %6, align 8, !tbaa !80
  %33 = call i32 @SSL_do_handshake(ptr noundef %32)
  store i32 %33, ptr %10, align 4, !tbaa !61
  %34 = load i32, ptr %10, align 4, !tbaa !61
  %35 = icmp slt i32 %34, 0
  br i1 %35, label %36, label %38

36:                                               ; preds = %31
  %37 = load i32, ptr %10, align 4, !tbaa !61
  store i32 %37, ptr %5, align 4
  store i32 1, ptr %11, align 4
  br label %43

38:                                               ; preds = %31
  %39 = load i32, ptr %10, align 4, !tbaa !61
  %40 = icmp eq i32 %39, 0
  br i1 %40, label %41, label %42

41:                                               ; preds = %38
  call void @ERR_put_error(i32 noundef 16, i32 noundef 0, i32 noundef 215, ptr noundef @.str, i32 noundef 613)
  store i32 -1, ptr %5, align 4
  store i32 1, ptr %11, align 4
  br label %43

42:                                               ; preds = %38
  store i32 0, ptr %11, align 4
  br label %43

43:                                               ; preds = %42, %41, %36
  call void @llvm.lifetime.end.p0(i64 4, ptr %10) #8
  %44 = load i32, ptr %11, align 4
  switch i32 %44, label %59 [
    i32 0, label %45
    i32 1, label %57
  ]

45:                                               ; preds = %43
  br label %27, !llvm.loop !148

46:                                               ; preds = %27
  %47 = load ptr, ptr %6, align 8, !tbaa !80
  %48 = getelementptr inbounds nuw %struct.ssl_st, ptr %47, i32 0, i32 3
  %49 = load ptr, ptr %48, align 8, !tbaa !117
  %50 = getelementptr inbounds nuw %struct.ssl_protocol_method_st, ptr %49, i32 0, i32 6
  %51 = load ptr, ptr %50, align 8, !tbaa !150
  %52 = load ptr, ptr %6, align 8, !tbaa !80
  %53 = load ptr, ptr %7, align 8, !tbaa !147
  %54 = load i32, ptr %8, align 4, !tbaa !61
  %55 = load i32, ptr %9, align 4, !tbaa !61
  %56 = call i32 %51(ptr noundef %52, ptr noundef %53, i32 noundef %54, i32 noundef %55)
  store i32 %56, ptr %5, align 4
  br label %57

57:                                               ; preds = %46, %43, %25, %18
  %58 = load i32, ptr %5, align 4
  ret i32 %58

59:                                               ; preds = %43
  unreachable
}