; Function Attrs: nounwind uwtable
define internal fastcc i32 @ssl_read_impl(ptr noundef initializes((144, 148)) %0, ptr noundef %1, i32 noundef %2, i32 noundef range(i32 0, 2) %3) unnamed_addr #0 {
  %5 = getelementptr inbounds nuw i8, ptr %0, i64 144
  store i32 1, ptr %5, align 8, !tbaa !109
  tail call void @ERR_clear_error() #21
  tail call void @ERR_clear_system_error() #21
  %6 = getelementptr inbounds nuw i8, ptr %0, i64 40
  %7 = load ptr, ptr %6, align 8, !tbaa !130
  %8 = icmp eq ptr %7, null
  br i1 %8, label %9, label %10

9:                                                ; preds = %4
  tail call void @ERR_put_error(i32 noundef 16, i32 noundef 0, i32 noundef 226, ptr noundef nonnull @.str, i32 noundef 596) #21
  br label %.thread23

10:                                               ; preds = %4
  %11 = getelementptr inbounds nuw i8, ptr %0, i64 48
  %12 = load i32, ptr %11, align 8, !tbaa !127
  %13 = and i32 %12, 2
  %.not = icmp eq i32 %13, 0
  br i1 %.not, label %.preheader, label %.thread23

.preheader:                                       ; preds = %10
  %14 = getelementptr inbounds nuw i8, ptr %0, i64 52
  %15 = load i32, ptr %14, align 4, !tbaa !128
  %16 = and i32 %15, 12288
  %.not2729 = icmp eq i32 %16, 0
  br i1 %.not2729, label %._crit_edge, label %.lr.ph

.lr.ph:                                           ; preds = %.preheader, %.thread
  store i32 1, ptr %5, align 8, !tbaa !109
  tail call void @ERR_clear_error() #21
  %17 = load ptr, ptr %6, align 8, !tbaa !130
  %18 = icmp eq ptr %17, null
  br i1 %18, label %SSL_do_handshake.exit.thread, label %19

SSL_do_handshake.exit.thread:                     ; preds = %.lr.ph
  tail call void @ERR_put_error(i32 noundef 16, i32 noundef 0, i32 noundef 134, ptr noundef nonnull @.str, i32 noundef 556) #21
  br label %.thread23

19:                                               ; preds = %.lr.ph
  %20 = load i32, ptr %14, align 4, !tbaa !128
  %21 = and i32 %20, 12288
  %.not5.i = icmp eq i32 %21, 0
  br i1 %.not5.i, label %.thread, label %SSL_do_handshake.exit

SSL_do_handshake.exit:                            ; preds = %19
  %22 = tail call i32 %17(ptr noundef nonnull %0) #21
  %23 = icmp slt i32 %22, 0
  br i1 %23, label %.thread23, label %24

24:                                               ; preds = %SSL_do_handshake.exit
  %25 = icmp eq i32 %22, 0
  br i1 %25, label %26, label %..thread_crit_edge

..thread_crit_edge:                               ; preds = %24
  %.pre = load i32, ptr %14, align 4, !tbaa !128
  br label %.thread

26:                                               ; preds = %24
  tail call void @ERR_put_error(i32 noundef 16, i32 noundef 0, i32 noundef 215, ptr noundef nonnull @.str, i32 noundef 613) #21
  br label %.thread23

.thread:                                          ; preds = %..thread_crit_edge, %19
  %27 = phi i32 [ %.pre, %..thread_crit_edge ], [ %20, %19 ]
  %28 = and i32 %27, 12288
  %.not27 = icmp eq i32 %28, 0
  br i1 %.not27, label %._crit_edge, label %.lr.ph

._crit_edge:                                      ; preds = %.thread, %.preheader
  %29 = getelementptr inbounds nuw i8, ptr %0, i64 8
  %30 = load ptr, ptr %29, align 8, !tbaa !106
  %31 = getelementptr inbounds nuw i8, ptr %30, i64 48
  %32 = load ptr, ptr %31, align 8, !tbaa !135
  %33 = tail call i32 %32(ptr noundef nonnull %0, ptr noundef %1, i32 noundef %2, i32 noundef %3) #21
  br label %.thread23

.thread23:                                        ; preds = %SSL_do_handshake.exit, %SSL_do_handshake.exit.thread, %26, %10, %._crit_edge, %9
  %.014 = phi i32 [ -1, %9 ], [ %33, %._crit_edge ], [ 0, %10 ], [ -1, %SSL_do_handshake.exit.thread ], [ -1, %26 ], [ %22, %SSL_do_handshake.exit ]
  ret i32 %.014
}